target datalayout = "e-m:e-p270:32:32-p271:32:32-p272:64:64-i64:64-i128:128-f80:128-n8:16:32:64-S128"
target triple = "x86_64-pc-linux-gnu"

%struct.mbedtls_ecp_curve_info = type { i32, i16, i16, ptr }

; Function Attrs: nounwind uwtable
define hidden ptr @mbedtls_ecp_curve_list() #0 {
  ret ptr @ecp_supported_curves
}

; Function Attrs: nounwind uwtable
define hidden ptr @mbedtls_ecp_curve_info_from_tls_id(i16 noundef zeroext %0) #0 {
  %2 = alloca ptr, align 8
  %3 = alloca i16, align 2
  %4 = alloca ptr, align 8
  %5 = alloca i32, align 4
  store i16 %0, ptr %3, align 2, !tbaa !19
  call void @llvm.lifetime.start.p0(i64 8, ptr %4) #11
  %6 = call ptr @mbedtls_ecp_curve_list()
  store ptr %6, ptr %4, align 8, !tbaa !9
  br label %7

7:                                                ; preds = %23, %1
  %8 = load ptr, ptr %4, align 8, !tbaa !9
  %9 = getelementptr inbounds nuw %struct.mbedtls_ecp_curve_info, ptr %8, i32 0, i32 0
  %10 = load i32, ptr %9, align 8, !tbaa !12
  %11 = icmp ne i32 %10, 0
  br i1 %11, label %12, label %26

12:                                               ; preds = %7
  %13 = load ptr, ptr %4, align 8, !tbaa !9
  %14 = getelementptr inbounds nuw %struct.mbedtls_ecp_curve_info, ptr %13, i32 0, i32 1
  %15 = load i16, ptr %14, align 4, !tbaa !20
  %16 = zext i16 %15 to i32
  %17 = load i16, ptr %3, align 2, !tbaa !19
  %18 = zext i16 %17 to i32
  %19 = icmp eq i32 %16, %18
  br i1 %19, label %20, label %22

20:                                               ; preds = %12
  %21 = load ptr, ptr %4, align 8, !tbaa !9
  store ptr %21, ptr %2, align 8
  store i32 1, ptr %5, align 4
  br label %27

22:                                               ; preds = %12
  br label %23

23:                                               ; preds = %22
  %24 = load ptr, ptr %4, align 8, !tbaa !9
  %25 = getelementptr inbounds nuw %struct.mbedtls_ecp_curve_info, ptr %24, i32 1
  store ptr %25, ptr %4, align 8, !tbaa !9
  br label %7, !llvm.loop !21

26:                                               ; preds = %7
  store ptr null, ptr %2, align 8
  store i32 1, ptr %5, align 4
  br label %27

27:                                               ; preds = %26, %20
  call void @llvm.lifetime.end.p0(i64 8, ptr %4) #11
  %28 = load ptr, ptr %2, align 8
  ret ptr %28
}