; Function Attrs: nofree norecurse nosync nounwind memory(none) uwtable
define hidden noundef ptr @mbedtls_ecp_curve_info_from_tls_id(i16 noundef zeroext %0) local_unnamed_addr #3 {
  br label %2

2:                                                ; preds = %1, %6
  %.06 = phi ptr [ @ecp_supported_curves, %1 ], [ %7, %6 ]
  %3 = getelementptr inbounds nuw i8, ptr %.06, i64 4
  %4 = load i16, ptr %3, align 4, !tbaa !15
  %5 = icmp eq i16 %4, %0
  br i1 %5, label %9, label %6

6:                                                ; preds = %2
  %7 = getelementptr inbounds nuw i8, ptr %.06, i64 16
  %8 = load i32, ptr %7, align 8, !tbaa !7
  %.not = icmp eq i32 %8, 0
  br i1 %.not, label %9, label %2, !llvm.loop !16

9:                                                ; preds = %6, %2
  %.05 = phi ptr [ %.06, %2 ], [ null, %6 ]
  ret ptr %.05
}